; ModuleID = '24/1184.c'
source_filename = "24/1184.c"
target datalayout = "e-m:e-p270:32:32-p271:32:32-p272:64:64-i64:64-f80:128-n8:16:32:64-S128"
target triple = "x86_64-pc-linux-gnu"

@.str = private unnamed_addr constant [3 x i8] c"%s\00", align 1
@.str.1 = private unnamed_addr constant [4 x i8] c" %s\00", align 1
@.str.2 = private unnamed_addr constant [6 x i8] c"%s\0A%s\00", align 1

; Function Attrs: noinline nounwind uwtable
define dso_local i32 @main() #0 {
  %1 = alloca i32, align 4
  %2 = alloca i32, align 4
  %3 = alloca i32, align 4
  %4 = alloca i32, align 4
  %5 = alloca [100 x i8], align 16
  %6 = alloca [100 x i8], align 16
  %7 = alloca [100 x i8], align 16
  store i32 0, i32* %1, align 4
  %8 = getelementptr inbounds [100 x i8], [100 x i8]* %5, i64 0, i64 0
  %9 = call i32 (i8*, ...) @__isoc99_scanf(i8* getelementptr inbounds ([3 x i8], [3 x i8]* @.str, i64 0, i64 0), i8* %8)
  %10 = getelementptr inbounds [100 x i8], [100 x i8]* %5, i64 0, i64 0
  %11 = call i64 @strlen(i8* %10) #4
  %12 = trunc i64 %11 to i32
  store i32 %12, i32* %4, align 4
  store i32 %12, i32* %3, align 4
  %13 = getelementptr inbounds [100 x i8], [100 x i8]* %7, i64 0, i64 0
  %14 = getelementptr inbounds [100 x i8], [100 x i8]* %5, i64 0, i64 0
  %15 = call i8* @strcpy(i8* %13, i8* %14) #5
  %16 = getelementptr inbounds [100 x i8], [100 x i8]* %6, i64 0, i64 0
  %17 = getelementptr inbounds [100 x i8], [100 x i8]* %5, i64 0, i64 0
  %18 = call i8* @strcpy(i8* %16, i8* %17) #5
  store i32 1, i32* %2, align 4
  br label %19

19:                                               ; preds = %51, %0
  %20 = load i32, i32* %2, align 4
  %21 = icmp slt i32 %20, 50
  br i1 %21, label %22, label %54

22:                                               ; preds = %19
  %23 = getelementptr inbounds [100 x i8], [100 x i8]* %5, i64 0, i64 0
  %24 = call i32 (i8*, ...) @__isoc99_scanf(i8* getelementptr inbounds ([4 x i8], [4 x i8]* @.str.1, i64 0, i64 0), i8* %23)
  %25 = load i32, i32* %3, align 4
  %26 = sext i32 %25 to i64
  %27 = getelementptr inbounds [100 x i8], [100 x i8]* %5, i64 0, i64 0
  %28 = call i64 @strlen(i8* %27) #4
  %29 = icmp ult i64 %26, %28
  br i1 %29, label %30, label %37

30:                                               ; preds = %22
  %31 = getelementptr inbounds [100 x i8], [100 x i8]* %6, i64 0, i64 0
  %32 = getelementptr inbounds [100 x i8], [100 x i8]* %5, i64 0, i64 0
  %33 = call i8* @strcpy(i8* %31, i8* %32) #5
  %34 = getelementptr inbounds [100 x i8], [100 x i8]* %5, i64 0, i64 0
  %35 = call i64 @strlen(i8* %34) #4
  %36 = trunc i64 %35 to i32
  store i32 %36, i32* %3, align 4
  br label %37

37:                                               ; preds = %30, %22
  %38 = load i32, i32* %4, align 4
  %39 = sext i32 %38 to i64
  %40 = getelementptr inbounds [100 x i8], [100 x i8]* %5, i64 0, i64 0
  %41 = call i64 @strlen(i8* %40) #4
  %42 = icmp ugt i64 %39, %41
  br i1 %42, label %43, label %50

43:                                               ; preds = %37
  %44 = getelementptr inbounds [100 x i8], [100 x i8]* %7, i64 0, i64 0
  %45 = getelementptr inbounds [100 x i8], [100 x i8]* %5, i64 0, i64 0
  %46 = call i8* @strcpy(i8* %44, i8* %45) #5
  %47 = getelementptr inbounds [100 x i8], [100 x i8]* %5, i64 0, i64 0
  %48 = call i64 @strlen(i8* %47) #4
  %49 = trunc i64 %48 to i32
  store i32 %49, i32* %4, align 4
  br label %50

50:                                               ; preds = %43, %37
  br label %51

51:                                               ; preds = %50
  %52 = load i32, i32* %2, align 4
  %53 = add nsw i32 %52, 1
  store i32 %53, i32* %2, align 4
  br label %19

54:                                               ; preds = %19
  %55 = getelementptr inbounds [100 x i8], [100 x i8]* %6, i64 0, i64 0
  %56 = getelementptr inbounds [100 x i8], [100 x i8]* %7, i64 0, i64 0
  %57 = call i32 (i8*, ...) @printf(i8* getelementptr inbounds ([6 x i8], [6 x i8]* @.str.2, i64 0, i64 0), i8* %55, i8* %56)
  ret i32 0
}

declare dso_local i32 @__isoc99_scanf(i8*, ...) #1

; Function Attrs: nounwind readonly
declare dso_local i64 @strlen(i8*) #2

; Function Attrs: nounwind
declare dso_local i8* @strcpy(i8*, i8*) #3

declare dso_local i32 @printf(i8*, ...) #1


!llvm.module.flags = !{!0}
!llvm.ident = !{!1}

!0 = !{i32 1, !"wchar_size", i32 4}
!1 = !{!"clang version 10.0.0-4ubuntu1 "}
