; ModuleID = 'source-C-CXX/23/1184.c'
source_filename = "source-C-CXX/23/1184.c"
target datalayout = "e-m:e-p270:32:32-p271:32:32-p272:64:64-i64:64-f80:128-n8:16:32:64-S128"
target triple = "x86_64-pc-linux-gnu"

@.str = private unnamed_addr constant [3 x i8] c"%s\00", align 1
@.str.1 = private unnamed_addr constant [4 x i8] c" %s\00", align 1
@.str.2 = private unnamed_addr constant [6 x i8] c"%s\0A%s\00", align 1

; Function Attrs: nofree nounwind sspstrong uwtable
define dso_local i32 @main() local_unnamed_addr #0 {
  %1 = alloca [100 x i8], align 16
  %2 = alloca [100 x i8], align 16
  %3 = alloca [100 x i8], align 16
  %4 = getelementptr inbounds [100 x i8], [100 x i8]* %1, i64 0, i64 0
  call void @llvm.lifetime.start.p0i8(i64 100, i8* nonnull %4) #5
  %5 = getelementptr inbounds [100 x i8], [100 x i8]* %2, i64 0, i64 0
  call void @llvm.lifetime.start.p0i8(i64 100, i8* nonnull %5) #5
  %6 = getelementptr inbounds [100 x i8], [100 x i8]* %3, i64 0, i64 0
  call void @llvm.lifetime.start.p0i8(i64 100, i8* nonnull %6) #5
  %7 = call i32 (i8*, ...) @__isoc99_scanf(i8* getelementptr inbounds ([3 x i8], [3 x i8]* @.str, i64 0, i64 0), i8* nonnull %4)
  %8 = call i64 @strlen(i8* noundef nonnull %4) #6
  %9 = trunc i64 %8 to i32
  %10 = call i8* @strcpy(i8* noundef nonnull %6, i8* noundef nonnull %4) #5
  %11 = call i8* @strcpy(i8* noundef nonnull %5, i8* noundef nonnull %4) #5
  br label %12

12:                                               ; preds = %0, %30
  %13 = phi i32 [ %9, %0 ], [ %31, %30 ]
  %14 = phi i32 [ %9, %0 ], [ %24, %30 ]
  %15 = phi i32 [ 1, %0 ], [ %32, %30 ]
  %16 = call i32 (i8*, ...) @__isoc99_scanf(i8* getelementptr inbounds ([4 x i8], [4 x i8]* @.str.1, i64 0, i64 0), i8* nonnull %4)
  %17 = sext i32 %14 to i64
  %18 = call i64 @strlen(i8* noundef nonnull %4) #6
  %19 = icmp ugt i64 %18, %17
  br i1 %19, label %20, label %23

20:                                               ; preds = %12
  %21 = call i8* @strcpy(i8* noundef nonnull %5, i8* noundef nonnull %4) #5
  %22 = trunc i64 %18 to i32
  br label %23

23:                                               ; preds = %20, %12
  %24 = phi i32 [ %22, %20 ], [ %14, %12 ]
  %25 = sext i32 %13 to i64
  %26 = icmp ult i64 %18, %25
  br i1 %26, label %27, label %30

27:                                               ; preds = %23
  %28 = call i8* @strcpy(i8* noundef nonnull %6, i8* noundef nonnull %4) #5
  %29 = trunc i64 %18 to i32
  br label %30

30:                                               ; preds = %23, %27
  %31 = phi i32 [ %29, %27 ], [ %13, %23 ]
  %32 = add nuw nsw i32 %15, 1
  %33 = icmp eq i32 %32, 50
  br i1 %33, label %34, label %12, !llvm.loop !5

34:                                               ; preds = %30
  %35 = call i32 (i8*, ...) @printf(i8* nonnull dereferenceable(1) getelementptr inbounds ([6 x i8], [6 x i8]* @.str.2, i64 0, i64 0), i8* nonnull %5, i8* nonnull %6)
  call void @llvm.lifetime.end.p0i8(i64 100, i8* nonnull %6) #5
  call void @llvm.lifetime.end.p0i8(i64 100, i8* nonnull %5) #5
  call void @llvm.lifetime.end.p0i8(i64 100, i8* nonnull %4) #5
  ret i32 0
}

; Function Attrs: argmemonly mustprogress nofree nosync nounwind willreturn
declare void @llvm.lifetime.start.p0i8(i64 immarg, i8* nocapture) #1

; Function Attrs: nofree nounwind
declare noundef i32 @__isoc99_scanf(i8* nocapture noundef readonly, ...) local_unnamed_addr #2

; Function Attrs: argmemonly mustprogress nofree nounwind readonly willreturn
declare i64 @strlen(i8* nocapture) local_unnamed_addr #3

; Function Attrs: argmemonly mustprogress nofree nounwind willreturn
declare i8* @strcpy(i8* noalias returned writeonly, i8* noalias nocapture readonly) local_unnamed_addr #4

; Function Attrs: nofree nounwind
declare noundef i32 @printf(i8* nocapture noundef readonly, ...) local_unnamed_addr #2

; Function Attrs: argmemonly mustprogress nofree nosync nounwind willreturn
declare void @llvm.lifetime.end.p0i8(i64 immarg, i8* nocapture) #1


!llvm.module.flags = !{!0, !1, !2, !3}
!llvm.ident = !{!4}

!0 = !{i32 1, !"wchar_size", i32 4}
!1 = !{i32 7, !"PIC Level", i32 2}
!2 = !{i32 7, !"PIE Level", i32 2}
!3 = !{i32 7, !"uwtable", i32 1}
!4 = !{!"clang version 13.0.0"}
!5 = distinct !{!5, !6}
!6 = !{!"llvm.loop.mustprogress"}
